target datalayout = "e-m:e-p270:32:32-p271:32:32-p272:64:64-i64:64-i128:128-f80:128-n8:16:32:64-S128"
target triple = "x86_64-pc-linux-gnu"

%struct.h5tool_format_t = type { i8, ptr, ptr, ptr, ptr, ptr, ptr, ptr, ptr, ptr, ptr, ptr, ptr, ptr, ptr, ptr, ptr, ptr, i32, i32, i32, ptr, ptr, ptr, i32, ptr, ptr, ptr, ptr, ptr, ptr, ptr, ptr, ptr, ptr, ptr, ptr, ptr, ptr, ptr, ptr, i32, i64, ptr, ptr, ptr, ptr, ptr, i32, ptr, i32, i32, ptr, i32, ptr, ptr, ptr, ptr, i32, i32 }

@.str.9 = private unnamed_addr constant [2 x i8] c"\0A\00", align 1
@.str.27 = private unnamed_addr constant [3 x i8] c"%c\00", align 1
@.str.64 = private unnamed_addr constant [2 x i8] c"\22\00", align 1
@.str.66 = private unnamed_addr constant [7 x i8] c"%%%02x\00", align 1
@.str.67 = private unnamed_addr constant [3 x i8] c"\\\22\00", align 1
@.str.68 = private unnamed_addr constant [2 x i8] c"\\\00", align 1
@.str.69 = private unnamed_addr constant [3 x i8] c"\\\\\00", align 1
@.str.70 = private unnamed_addr constant [2 x i8] c"\08\00", align 1
@.str.71 = private unnamed_addr constant [3 x i8] c"\\b\00", align 1
@.str.72 = private unnamed_addr constant [2 x i8] c"\0C\00", align 1
@.str.73 = private unnamed_addr constant [3 x i8] c"\\f\00", align 1
@.str.74 = private unnamed_addr constant [12 x i8] c"           \00", align 1
@.str.75 = private unnamed_addr constant [3 x i8] c"\\n\00", align 1
@.str.76 = private unnamed_addr constant [2 x i8] c"\0D\00", align 1
@.str.77 = private unnamed_addr constant [3 x i8] c"\\r\00", align 1
@.str.78 = private unnamed_addr constant [2 x i8] c"\09\00", align 1
@.str.79 = private unnamed_addr constant [3 x i8] c"\\t\00", align 1
@.str.80 = private unnamed_addr constant [6 x i8] c"\\%03o\00", align 1

; Function Attrs: nounwind uwtable
define internal void @h5tools_print_char(ptr noundef %0, ptr noundef %1, i8 noundef signext %2) #0 {
  %4 = alloca ptr, align 8
  %5 = alloca ptr, align 8
  %6 = alloca i8, align 1
  store ptr %0, ptr %4, align 8, !tbaa !3
  store ptr %1, ptr %5, align 8, !tbaa !19
  store i8 %2, ptr %6, align 1, !tbaa !18
  %7 = load ptr, ptr %5, align 8, !tbaa !19
  %8 = getelementptr inbounds nuw %struct.h5tool_format_t, ptr %7, i32 0, i32 19
  %9 = load i32, ptr %8, align 4, !tbaa !133
  %10 = icmp eq i32 %9, 1
  br i1 %10, label %11, label %30

11:                                               ; preds = %3
  %12 = load i8, ptr %6, align 1, !tbaa !18
  %13 = sext i8 %12 to i32
  %14 = icmp sle i32 %13, 32
  br i1 %14, label %19, label %15

15:                                               ; preds = %11
  %16 = load i8, ptr %6, align 1, !tbaa !18
  %17 = sext i8 %16 to i32
  %18 = icmp sgt i32 %17, 126
  br i1 %18, label %19, label %24

19:                                               ; preds = %15, %11
  %20 = load ptr, ptr %4, align 8, !tbaa !3
  %21 = load i8, ptr %6, align 1, !tbaa !18
  %22 = sext i8 %21 to i32
  %23 = call ptr (ptr, ptr, ...) @h5tools_str_append(ptr noundef %20, ptr noundef @.str.66, i32 noundef %22)
  br label %29

24:                                               ; preds = %15
  %25 = load ptr, ptr %4, align 8, !tbaa !3
  %26 = load i8, ptr %6, align 1, !tbaa !18
  %27 = sext i8 %26 to i32
  %28 = call ptr (ptr, ptr, ...) @h5tools_str_append(ptr noundef %25, ptr noundef @.str.27, i32 noundef %27)
  br label %29

29:                                               ; preds = %24, %19
  br label %144

30:                                               ; preds = %3
  %31 = load i8, ptr %6, align 1, !tbaa !18
  %32 = sext i8 %31 to i32
  switch i32 %32, label %121 [
    i32 34, label %33
    i32 92, label %45
    i32 8, label %57
    i32 12, label %69
    i32 10, label %81
    i32 13, label %95
    i32 9, label %109
  ]

33:                                               ; preds = %30
  %34 = load ptr, ptr %5, align 8, !tbaa !19
  %35 = getelementptr inbounds nuw %struct.h5tool_format_t, ptr %34, i32 0, i32 59
  %36 = load i32, ptr %35, align 4, !tbaa !134
  %37 = icmp ne i32 %36, 0
  br i1 %37, label %41, label %38

38:                                               ; preds = %33
  %39 = load ptr, ptr %4, align 8, !tbaa !3
  %40 = call ptr (ptr, ptr, ...) @h5tools_str_append(ptr noundef %39, ptr noundef @.str.64)
  br label %44

41:                                               ; preds = %33
  %42 = load ptr, ptr %4, align 8, !tbaa !3
  %43 = call ptr (ptr, ptr, ...) @h5tools_str_append(ptr noundef %42, ptr noundef @.str.67)
  br label %44

44:                                               ; preds = %41, %38
  br label %143

45:                                               ; preds = %30
  %46 = load ptr, ptr %5, align 8, !tbaa !19
  %47 = getelementptr inbounds nuw %struct.h5tool_format_t, ptr %46, i32 0, i32 59
  %48 = load i32, ptr %47, align 4, !tbaa !134
  %49 = icmp ne i32 %48, 0
  br i1 %49, label %53, label %50

50:                                               ; preds = %45
  %51 = load ptr, ptr %4, align 8, !tbaa !3
  %52 = call ptr (ptr, ptr, ...) @h5tools_str_append(ptr noundef %51, ptr noundef @.str.68)
  br label %56

53:                                               ; preds = %45
  %54 = load ptr, ptr %4, align 8, !tbaa !3
  %55 = call ptr (ptr, ptr, ...) @h5tools_str_append(ptr noundef %54, ptr noundef @.str.69)
  br label %56

56:                                               ; preds = %53, %50
  br label %143

57:                                               ; preds = %30
  %58 = load ptr, ptr %5, align 8, !tbaa !19
  %59 = getelementptr inbounds nuw %struct.h5tool_format_t, ptr %58, i32 0, i32 59
  %60 = load i32, ptr %59, align 4, !tbaa !134
  %61 = icmp ne i32 %60, 0
  br i1 %61, label %65, label %62

62:                                               ; preds = %57
  %63 = load ptr, ptr %4, align 8, !tbaa !3
  %64 = call ptr (ptr, ptr, ...) @h5tools_str_append(ptr noundef %63, ptr noundef @.str.70)
  br label %68

65:                                               ; preds = %57
  %66 = load ptr, ptr %4, align 8, !tbaa !3
  %67 = call ptr (ptr, ptr, ...) @h5tools_str_append(ptr noundef %66, ptr noundef @.str.71)
  br label %68

68:                                               ; preds = %65, %62
  br label %143

69:                                               ; preds = %30
  %70 = load ptr, ptr %5, align 8, !tbaa !19
  %71 = getelementptr inbounds nuw %struct.h5tool_format_t, ptr %70, i32 0, i32 59
  %72 = load i32, ptr %71, align 4, !tbaa !134
  %73 = icmp ne i32 %72, 0
  br i1 %73, label %77, label %74

74:                                               ; preds = %69
  %75 = load ptr, ptr %4, align 8, !tbaa !3
  %76 = call ptr (ptr, ptr, ...) @h5tools_str_append(ptr noundef %75, ptr noundef @.str.72)
  br label %80

77:                                               ; preds = %69
  %78 = load ptr, ptr %4, align 8, !tbaa !3
  %79 = call ptr (ptr, ptr, ...) @h5tools_str_append(ptr noundef %78, ptr noundef @.str.73)
  br label %80

80:                                               ; preds = %77, %74
  br label %143

81:                                               ; preds = %30
  %82 = load ptr, ptr %5, align 8, !tbaa !19
  %83 = getelementptr inbounds nuw %struct.h5tool_format_t, ptr %82, i32 0, i32 59
  %84 = load i32, ptr %83, align 4, !tbaa !134
  %85 = icmp ne i32 %84, 0
  br i1 %85, label %91, label %86

86:                                               ; preds = %81
  %87 = load ptr, ptr %4, align 8, !tbaa !3
  %88 = call ptr (ptr, ptr, ...) @h5tools_str_append(ptr noundef %87, ptr noundef @.str.9)
  %89 = load ptr, ptr %4, align 8, !tbaa !3
  %90 = call ptr (ptr, ptr, ...) @h5tools_str_append(ptr noundef %89, ptr noundef @.str.74)
  br label %94

91:                                               ; preds = %81
  %92 = load ptr, ptr %4, align 8, !tbaa !3
  %93 = call ptr (ptr, ptr, ...) @h5tools_str_append(ptr noundef %92, ptr noundef @.str.75)
  br label %94

94:                                               ; preds = %91, %86
  br label %143

95:                                               ; preds = %30
  %96 = load ptr, ptr %5, align 8, !tbaa !19
  %97 = getelementptr inbounds nuw %struct.h5tool_format_t, ptr %96, i32 0, i32 59
  %98 = load i32, ptr %97, align 4, !tbaa !134
  %99 = icmp ne i32 %98, 0
  br i1 %99, label %105, label %100

100:                                              ; preds = %95
  %101 = load ptr, ptr %4, align 8, !tbaa !3
  %102 = call ptr (ptr, ptr, ...) @h5tools_str_append(ptr noundef %101, ptr noundef @.str.76)
  %103 = load ptr, ptr %4, align 8, !tbaa !3
  %104 = call ptr (ptr, ptr, ...) @h5tools_str_append(ptr noundef %103, ptr noundef @.str.74)
  br label %108

105:                                              ; preds = %95
  %106 = load ptr, ptr %4, align 8, !tbaa !3
  %107 = call ptr (ptr, ptr, ...) @h5tools_str_append(ptr noundef %106, ptr noundef @.str.77)
  br label %108

108:                                              ; preds = %105, %100
  br label %143

109:                                              ; preds = %30
  %110 = load ptr, ptr %5, align 8, !tbaa !19
  %111 = getelementptr inbounds nuw %struct.h5tool_format_t, ptr %110, i32 0, i32 59
  %112 = load i32, ptr %111, align 4, !tbaa !134
  %113 = icmp ne i32 %112, 0
  br i1 %113, label %117, label %114

114:                                              ; preds = %109
  %115 = load ptr, ptr %4, align 8, !tbaa !3
  %116 = call ptr (ptr, ptr, ...) @h5tools_str_append(ptr noundef %115, ptr noundef @.str.78)
  br label %120

117:                                              ; preds = %109
  %118 = load ptr, ptr %4, align 8, !tbaa !3
  %119 = call ptr (ptr, ptr, ...) @h5tools_str_append(ptr noundef %118, ptr noundef @.str.79)
  br label %120

120:                                              ; preds = %117, %114
  br label %143

121:                                              ; preds = %30
  %122 = call ptr @__ctype_b_loc() #16
  %123 = load ptr, ptr %122, align 8, !tbaa !135
  %124 = load i8, ptr %6, align 1, !tbaa !18
  %125 = sext i8 %124 to i32
  %126 = sext i32 %125 to i64
  %127 = getelementptr inbounds i16, ptr %123, i64 %126
  %128 = load i16, ptr %127, align 2, !tbaa !81
  %129 = zext i16 %128 to i32
  %130 = and i32 %129, 16384
  %131 = icmp ne i32 %130, 0
  br i1 %131, label %132, label %137

132:                                              ; preds = %121
  %133 = load ptr, ptr %4, align 8, !tbaa !3
  %134 = load i8, ptr %6, align 1, !tbaa !18
  %135 = sext i8 %134 to i32
  %136 = call ptr (ptr, ptr, ...) @h5tools_str_append(ptr noundef %133, ptr noundef @.str.27, i32 noundef %135)
  br label %142

137:                                              ; preds = %121
  %138 = load ptr, ptr %4, align 8, !tbaa !3
  %139 = load i8, ptr %6, align 1, !tbaa !18
  %140 = sext i8 %139 to i32
  %141 = call ptr (ptr, ptr, ...) @h5tools_str_append(ptr noundef %138, ptr noundef @.str.80, i32 noundef %140)
  br label %142

142:                                              ; preds = %137, %132
  br label %143

143:                                              ; preds = %142, %120, %108, %94, %80, %68, %56, %44
  br label %144

144:                                              ; preds = %143, %29
  ret void
}