; Function Attrs: nounwind uwtable
define internal fastcc void @h5tools_print_char(ptr noundef captures(none) %0, ptr noundef readonly captures(none) %1, i8 noundef signext %2) unnamed_addr #4 {
  %4 = getelementptr inbounds nuw i8, ptr %1, i64 148
  %5 = load i32, ptr %4, align 4, !tbaa !115
  %6 = icmp eq i32 %5, 1
  %7 = sext i8 %2 to i32
  br i1 %6, label %8, label %14

8:                                                ; preds = %3
  %9 = add i8 %2, -127
  %or.cond = icmp ult i8 %9, -94
  br i1 %or.cond, label %10, label %12

10:                                               ; preds = %8
  %11 = tail call ptr (ptr, ptr, ...) @h5tools_str_append(ptr noundef %0, ptr noundef nonnull @.str.66, i32 noundef %7)
  br label %77

12:                                               ; preds = %8
  %13 = tail call ptr (ptr, ptr, ...) @h5tools_str_append(ptr noundef %0, ptr noundef nonnull @.str.27, i32 noundef %7)
  br label %77

14:                                               ; preds = %3
  switch i8 %2, label %66 [
    i8 34, label %15
    i8 92, label %22
    i8 8, label %29
    i8 12, label %36
    i8 10, label %43
    i8 13, label %51
    i8 9, label %59
  ]

15:                                               ; preds = %14
  %16 = getelementptr inbounds nuw i8, ptr %1, i64 452
  %17 = load i32, ptr %16, align 4, !tbaa !116
  %.not42 = icmp eq i32 %17, 0
  br i1 %.not42, label %18, label %20

18:                                               ; preds = %15
  %19 = tail call ptr (ptr, ptr, ...) @h5tools_str_append(ptr noundef %0, ptr noundef nonnull @.str.64)
  br label %77

20:                                               ; preds = %15
  %21 = tail call ptr (ptr, ptr, ...) @h5tools_str_append(ptr noundef %0, ptr noundef nonnull @.str.67)
  br label %77

22:                                               ; preds = %14
  %23 = getelementptr inbounds nuw i8, ptr %1, i64 452
  %24 = load i32, ptr %23, align 4, !tbaa !116
  %.not41 = icmp eq i32 %24, 0
  br i1 %.not41, label %25, label %27

25:                                               ; preds = %22
  %26 = tail call ptr (ptr, ptr, ...) @h5tools_str_append(ptr noundef %0, ptr noundef nonnull @.str.68)
  br label %77

27:                                               ; preds = %22
  %28 = tail call ptr (ptr, ptr, ...) @h5tools_str_append(ptr noundef %0, ptr noundef nonnull @.str.69)
  br label %77

29:                                               ; preds = %14
  %30 = getelementptr inbounds nuw i8, ptr %1, i64 452
  %31 = load i32, ptr %30, align 4, !tbaa !116
  %.not40 = icmp eq i32 %31, 0
  br i1 %.not40, label %32, label %34

32:                                               ; preds = %29
  %33 = tail call ptr (ptr, ptr, ...) @h5tools_str_append(ptr noundef %0, ptr noundef nonnull @.str.70)
  br label %77

34:                                               ; preds = %29
  %35 = tail call ptr (ptr, ptr, ...) @h5tools_str_append(ptr noundef %0, ptr noundef nonnull @.str.71)
  br label %77

36:                                               ; preds = %14
  %37 = getelementptr inbounds nuw i8, ptr %1, i64 452
  %38 = load i32, ptr %37, align 4, !tbaa !116
  %.not39 = icmp eq i32 %38, 0
  br i1 %.not39, label %39, label %41

39:                                               ; preds = %36
  %40 = tail call ptr (ptr, ptr, ...) @h5tools_str_append(ptr noundef %0, ptr noundef nonnull @.str.72)
  br label %77

41:                                               ; preds = %36
  %42 = tail call ptr (ptr, ptr, ...) @h5tools_str_append(ptr noundef %0, ptr noundef nonnull @.str.73)
  br label %77

43:                                               ; preds = %14
  %44 = getelementptr inbounds nuw i8, ptr %1, i64 452
  %45 = load i32, ptr %44, align 4, !tbaa !116
  %.not38 = icmp eq i32 %45, 0
  br i1 %.not38, label %46, label %49

46:                                               ; preds = %43
  %47 = tail call ptr (ptr, ptr, ...) @h5tools_str_append(ptr noundef %0, ptr noundef nonnull @.str.9)
  %48 = tail call ptr (ptr, ptr, ...) @h5tools_str_append(ptr noundef %0, ptr noundef nonnull @.str.74)
  br label %77

49:                                               ; preds = %43
  %50 = tail call ptr (ptr, ptr, ...) @h5tools_str_append(ptr noundef %0, ptr noundef nonnull @.str.75)
  br label %77

51:                                               ; preds = %14
  %52 = getelementptr inbounds nuw i8, ptr %1, i64 452
  %53 = load i32, ptr %52, align 4, !tbaa !116
  %.not37 = icmp eq i32 %53, 0
  br i1 %.not37, label %54, label %57

54:                                               ; preds = %51
  %55 = tail call ptr (ptr, ptr, ...) @h5tools_str_append(ptr noundef %0, ptr noundef nonnull @.str.76)
  %56 = tail call ptr (ptr, ptr, ...) @h5tools_str_append(ptr noundef %0, ptr noundef nonnull @.str.74)
  br label %77

57:                                               ; preds = %51
  %58 = tail call ptr (ptr, ptr, ...) @h5tools_str_append(ptr noundef %0, ptr noundef nonnull @.str.77)
  br label %77

59:                                               ; preds = %14
  %60 = getelementptr inbounds nuw i8, ptr %1, i64 452
  %61 = load i32, ptr %60, align 4, !tbaa !116
  %.not = icmp eq i32 %61, 0
  br i1 %.not, label %62, label %64

62:                                               ; preds = %59
  %63 = tail call ptr (ptr, ptr, ...) @h5tools_str_append(ptr noundef %0, ptr noundef nonnull @.str.78)
  br label %77

64:                                               ; preds = %59
  %65 = tail call ptr (ptr, ptr, ...) @h5tools_str_append(ptr noundef %0, ptr noundef nonnull @.str.79)
  br label %77

66:                                               ; preds = %14
  %67 = tail call ptr @__ctype_b_loc() #26
  %68 = load ptr, ptr %67, align 8, !tbaa !117
  %69 = sext i8 %2 to i64
  %70 = getelementptr inbounds i16, ptr %68, i64 %69
  %71 = load i16, ptr %70, align 2, !tbaa !119
  %72 = and i16 %71, 16384
  %.not43 = icmp eq i16 %72, 0
  br i1 %.not43, label %75, label %73

73:                                               ; preds = %66
  %74 = tail call ptr (ptr, ptr, ...) @h5tools_str_append(ptr noundef %0, ptr noundef nonnull @.str.27, i32 noundef %7)
  br label %77

75:                                               ; preds = %66
  %76 = tail call ptr (ptr, ptr, ...) @h5tools_str_append(ptr noundef %0, ptr noundef nonnull @.str.80, i32 noundef %7)
  br label %77

77:                                               ; preds = %20, %18, %27, %25, %34, %32, %41, %39, %49, %46, %57, %54, %64, %62, %75, %73, %10, %12
  ret void
}